; ModuleID = 'bench/openssl/original/rsa_none.ll'
source_filename = "bench/openssl/original/rsa_none.ll"
target datalayout = "e-m:e-p270:32:32-p271:32:32-p272:64:64-i64:64-i128:128-f80:128-n8:16:32:64-S128"
target triple = "x86_64-pc-linux-gnu"

@.str = private unnamed_addr constant [33 x i8] c"../openssl/crypto/rsa/rsa_none.c\00", align 1
@__func__.RSA_padding_add_none = private unnamed_addr constant [21 x i8] c"RSA_padding_add_none\00", align 1
@__func__.RSA_padding_check_none = private unnamed_addr constant [23 x i8] c"RSA_padding_check_none\00", align 1

; Function Attrs: nounwind uwtable
define range(i32 0, 2) i32 @RSA_padding_add_none(ptr noundef writeonly captures(none) %0, i32 noundef %1, ptr noundef readonly captures(none) %2, i32 noundef %3) local_unnamed_addr #0 {
  %5 = icmp sgt i32 %3, %1
  br i1 %5, label %6, label %7

6:                                                ; preds = %4
  tail call void @ERR_new() #4
  tail call void @ERR_set_debug(ptr noundef nonnull @.str, i32 noundef 24, ptr noundef nonnull @__func__.RSA_padding_add_none) #4
  tail call void (i32, i32, ptr, ...) @ERR_set_error(i32 noundef 4, i32 noundef 110, ptr noundef null) #4
  br label %12

7:                                                ; preds = %4
  %8 = icmp slt i32 %3, %1
  br i1 %8, label %9, label %10

9:                                                ; preds = %7
  tail call void @ERR_new() #4
  tail call void @ERR_set_debug(ptr noundef nonnull @.str, i32 noundef 29, ptr noundef nonnull @__func__.RSA_padding_add_none) #4
  tail call void (i32, i32, ptr, ...) @ERR_set_error(i32 noundef 4, i32 noundef 122, ptr noundef null) #4
  br label %12

10:                                               ; preds = %7
  %11 = zext i32 %3 to i64
  tail call void @llvm.memcpy.p0.p0.i64(ptr align 1 %0, ptr align 1 %2, i64 %11, i1 false)
  br label %12

12:                                               ; preds = %10, %9, %6
  %.0 = phi i32 [ 0, %6 ], [ 0, %9 ], [ 1, %10 ]
  ret i32 %.0
}

declare void @ERR_new() local_unnamed_addr #1

declare void @ERR_set_debug(ptr noundef, i32 noundef, ptr noundef) local_unnamed_addr #1

declare void @ERR_set_error(i32 noundef, i32 noundef, ptr noundef, ...) local_unnamed_addr #1

; Function Attrs: mustprogress nocallback nofree nounwind willreturn memory(argmem: readwrite)
declare void @llvm.memcpy.p0.p0.i64(ptr noalias writeonly captures(none), ptr noalias readonly captures(none), i64, i1 immarg) #2

; Function Attrs: nounwind uwtable
define noundef i32 @RSA_padding_check_none(ptr noundef writeonly captures(none) %0, i32 noundef %1, ptr noundef readonly captures(none) %2, i32 noundef %3, i32 noundef %4) local_unnamed_addr #0 {
  %6 = icmp sgt i32 %3, %1
  br i1 %6, label %7, label %8

7:                                                ; preds = %5
  tail call void @ERR_new() #4
  tail call void @ERR_set_debug(ptr noundef nonnull @.str, i32 noundef 42, ptr noundef nonnull @__func__.RSA_padding_check_none) #4
  tail call void (i32, i32, ptr, ...) @ERR_set_error(i32 noundef 4, i32 noundef 109, ptr noundef null) #4
  br label %16

8:                                                ; preds = %5
  %9 = sub nsw i32 %1, %3
  %10 = sext i32 %9 to i64
  tail call void @llvm.memset.p0.i64(ptr align 1 %0, i8 0, i64 %10, i1 false)
  %11 = sext i32 %1 to i64
  %12 = getelementptr inbounds i8, ptr %0, i64 %11
  %13 = sext i32 %3 to i64
  %14 = sub nsw i64 0, %13
  %15 = getelementptr inbounds i8, ptr %12, i64 %14
  tail call void @llvm.memcpy.p0.p0.i64(ptr align 1 %15, ptr align 1 %2, i64 %13, i1 false)
  br label %16

16:                                               ; preds = %8, %7
  %.0 = phi i32 [ -1, %7 ], [ %1, %8 ]
  ret i32 %.0
}

; Function Attrs: mustprogress nocallback nofree nounwind willreturn memory(argmem: write)
declare void @llvm.memset.p0.i64(ptr writeonly captures(none), i8, i64, i1 immarg) #3


!llvm.module.flags = !{!0, !1, !2}

!0 = !{i32 1, !"wchar_size", i32 4}
!1 = !{i32 8, !"PIC Level", i32 2}
!2 = !{i32 7, !"uwtable", i32 2}
